target datalayout = "e-m:e-p270:32:32-p271:32:32-p272:64:64-i64:64-i128:128-f80:128-n8:16:32:64-S128"
target triple = "x86_64-pc-linux-gnu"

@.str.46 = private unnamed_addr constant [12 x i8] c"__metatable\00", align 1
@.str.55 = private unnamed_addr constant [22 x i8] c"nil or table expected\00", align 1
@.str.56 = private unnamed_addr constant [36 x i8] c"cannot change a protected metatable\00", align 1

; Function Attrs: nounwind uwtable
define internal i32 @luaB_setmetatable(ptr noundef %0) #0 {
  %2 = alloca ptr, align 8
  %3 = alloca i32, align 4
  store ptr %0, ptr %2, align 8, !tbaa !4
  call void @llvm.lifetime.start.p0(i64 4, ptr %3) #5
  %4 = load ptr, ptr %2, align 8, !tbaa !4
  %5 = call i32 @lua_type(ptr noundef %4, i32 noundef 2)
  store i32 %5, ptr %3, align 4, !tbaa !12
  %6 = load ptr, ptr %2, align 8, !tbaa !4
  call void @luaL_checktype(ptr noundef %6, i32 noundef 1, i32 noundef 5)
  %7 = load i32, ptr %3, align 4, !tbaa !12
  %8 = icmp eq i32 %7, 0
  br i1 %8, label %15, label %9

9:                                                ; preds = %1
  %10 = load i32, ptr %3, align 4, !tbaa !12
  %11 = icmp eq i32 %10, 5
  br i1 %11, label %15, label %12

12:                                               ; preds = %9
  %13 = load ptr, ptr %2, align 8, !tbaa !4
  %14 = call i32 @luaL_argerror(ptr noundef %13, i32 noundef 2, ptr noundef @.str.55)
  br label %15

15:                                               ; preds = %12, %9, %1
  %16 = load ptr, ptr %2, align 8, !tbaa !4
  %17 = call i32 @luaL_getmetafield(ptr noundef %16, i32 noundef 1, ptr noundef @.str.46)
  %18 = icmp ne i32 %17, 0
  br i1 %18, label %19, label %22

19:                                               ; preds = %15
  %20 = load ptr, ptr %2, align 8, !tbaa !4
  %21 = call i32 (ptr, ptr, ...) @luaL_error(ptr noundef %20, ptr noundef @.str.56)
  br label %22

22:                                               ; preds = %19, %15
  %23 = load ptr, ptr %2, align 8, !tbaa !4
  call void @lua_settop(ptr noundef %23, i32 noundef 2)
  %24 = load ptr, ptr %2, align 8, !tbaa !4
  %25 = call i32 @lua_setmetatable(ptr noundef %24, i32 noundef 1)
  call void @llvm.lifetime.end.p0(i64 4, ptr %3) #5
  ret i32 1
}