; Function Attrs: nounwind uwtable
define internal noundef i32 @luaB_setmetatable(ptr noundef %0) #0 {
  %2 = tail call i32 @lua_type(ptr noundef %0, i32 noundef 2) #8
  tail call void @luaL_checktype(ptr noundef %0, i32 noundef 1, i32 noundef 5) #8
  switch i32 %2, label %3 [
    i32 5, label %5
    i32 0, label %5
  ]

3:                                                ; preds = %1
  %4 = tail call i32 @luaL_argerror(ptr noundef %0, i32 noundef 2, ptr noundef nonnull @.str.55) #8
  br label %5

5:                                                ; preds = %1, %1, %3
  %6 = tail call i32 @luaL_getmetafield(ptr noundef %0, i32 noundef 1, ptr noundef nonnull @.str.46) #8
  %.not = icmp eq i32 %6, 0
  br i1 %.not, label %9, label %7

7:                                                ; preds = %5
  %8 = tail call i32 (ptr, ptr, ...) @luaL_error(ptr noundef %0, ptr noundef nonnull @.str.56) #8
  br label %9

9:                                                ; preds = %7, %5
  tail call void @lua_settop(ptr noundef %0, i32 noundef 2) #8
  %10 = tail call i32 @lua_setmetatable(ptr noundef %0, i32 noundef 1) #8
  ret i32 1
}